target datalayout = "e-m:e-p270:32:32-p271:32:32-p272:64:64-i64:64-i128:128-f80:128-n8:16:32:64-S128"
target triple = "x86_64-pc-linux-gnu"

%struct._packet_info = type { ptr, ptr, i32, i32, %struct.nstime_t, %struct.nstime_t, %struct.nstime_t, i8, ptr, ptr, ptr, ptr, %struct._address, %struct._address, %struct._address, %struct._address, %struct._address, %struct._address, i32, ptr, i8, [3 x i8], %struct.anon, i32, i32, i32, i32, ptr, i8, ptr, ptr, i16, i16, i32, i32, i16, i32, i32, ptr, ptr, ptr, i8, i8, i16, i16, i16, i32, i16, i16, ptr, ptr, ptr, ptr, ptr, i32, i32 }
%struct.nstime_t = type { i64, i32 }
%struct._address = type { i32, i32, ptr, ptr }
%struct.anon = type { i8, [3 x i8] }

@hf_giop_repoid = internal global i32 0, align 4
@hf_giop_typecode_count = internal global i32 0, align 4
@hf_giop_typecode_member_name = internal global i32 0, align 4
@hf_giop_typecode_name = internal global i32 0, align 4

; Function Attrs: null_pointer_is_valid sspstrong uwtable
define i32 @get_CDR_ulong(ptr noundef %0, ptr noundef %1, i1 noundef zeroext %2, i32 noundef %3) #0 {
  %5 = alloca ptr, align 8
  %6 = alloca ptr, align 8
  %7 = alloca i8, align 1
  %8 = alloca i32, align 4
  %9 = alloca i32, align 4
  store ptr %0, ptr %5, align 8
  store ptr %1, ptr %6, align 8
  %10 = zext i1 %2 to i8
  store i8 %10, ptr %7, align 1
  store i32 %3, ptr %8, align 4
  call void @llvm.lifetime.start.p0(i64 4, ptr %9) #14
  br label %11

11:                                               ; preds = %18, %4
  %12 = load ptr, ptr %6, align 8
  %13 = load i32, ptr %12, align 4
  %14 = load i32, ptr %8, align 4
  %15 = add i32 %13, %14
  %16 = srem i32 %15, 4
  %17 = icmp ne i32 %16, 0
  br i1 %17, label %18, label %22

18:                                               ; preds = %11
  %19 = load ptr, ptr %6, align 8
  %20 = load i32, ptr %19, align 4
  %21 = add i32 %20, 1
  store i32 %21, ptr %19, align 4
  br label %11, !llvm.loop !10

22:                                               ; preds = %11
  %23 = load i8, ptr %7, align 1, !range !8, !noundef !9
  %24 = trunc i8 %23 to i1
  br i1 %24, label %25, label %30

25:                                               ; preds = %22
  %26 = load ptr, ptr %5, align 8
  %27 = load ptr, ptr %6, align 8
  %28 = load i32, ptr %27, align 4
  %29 = call i32 @tvb_get_ntohl(ptr noundef %26, i32 noundef %28)
  br label %35

30:                                               ; preds = %22
  %31 = load ptr, ptr %5, align 8
  %32 = load ptr, ptr %6, align 8
  %33 = load i32, ptr %32, align 4
  %34 = call i32 @tvb_get_letohl(ptr noundef %31, i32 noundef %33)
  br label %35

35:                                               ; preds = %30, %25
  %36 = phi i32 [ %29, %25 ], [ %34, %30 ]
  store i32 %36, ptr %9, align 4
  %37 = load ptr, ptr %6, align 8
  %38 = load i32, ptr %37, align 4
  %39 = add i32 %38, 4
  store i32 %39, ptr %37, align 4
  %40 = load i32, ptr %9, align 4
  call void @llvm.lifetime.end.p0(i64 4, ptr %9) #14
  ret i32 %40
}

; Function Attrs: null_pointer_is_valid sspstrong uwtable
define internal void @dissect_tk_enum_params(ptr noundef %0, ptr noundef %1, ptr noundef %2, ptr noundef %3, i1 noundef zeroext %4, i32 noundef %5, ptr noundef %6) #0 {
  %8 = alloca ptr, align 8
  %9 = alloca ptr, align 8
  %10 = alloca ptr, align 8
  %11 = alloca ptr, align 8
  %12 = alloca i8, align 1
  %13 = alloca i32, align 4
  %14 = alloca ptr, align 8
  %15 = alloca i32, align 4
  %16 = alloca i8, align 1
  %17 = alloca ptr, align 8
  %18 = alloca i32, align 4
  %19 = alloca ptr, align 8
  store ptr %0, ptr %8, align 8
  store ptr %1, ptr %9, align 8
  store ptr %2, ptr %10, align 8
  store ptr %3, ptr %11, align 8
  %20 = zext i1 %4 to i8
  store i8 %20, ptr %12, align 1
  store i32 %5, ptr %13, align 4
  store ptr %6, ptr %14, align 8
  call void @llvm.lifetime.start.p0(i64 4, ptr %15) #14
  call void @llvm.lifetime.start.p0(i64 1, ptr %16) #14
  call void @llvm.lifetime.start.p0(i64 8, ptr %17) #14
  %21 = load ptr, ptr %9, align 8
  %22 = getelementptr inbounds nuw %struct._packet_info, ptr %21, i32 0, i32 51
  %23 = load ptr, ptr %22, align 8
  %24 = call noalias ptr @wmem_alloc0(ptr noundef %23, i64 noundef 4) #15
  store ptr %24, ptr %17, align 8
  call void @llvm.lifetime.start.p0(i64 4, ptr %18) #14
  %25 = load ptr, ptr %8, align 8
  %26 = load ptr, ptr %10, align 8
  %27 = load ptr, ptr %11, align 8
  %28 = load i8, ptr %12, align 1, !range !8, !noundef !9
  %29 = trunc i8 %28 to i1
  %30 = load i32, ptr %13, align 4
  %31 = call i32 @get_CDR_encap_info(ptr noundef %25, ptr noundef %26, ptr noundef %27, i1 noundef zeroext %29, i32 noundef %30, ptr noundef %16, ptr noundef %15)
  call void @llvm.lifetime.start.p0(i64 8, ptr %19) #14
  store ptr null, ptr %19, align 8
  %32 = load ptr, ptr %8, align 8
  %33 = load ptr, ptr %10, align 8
  %34 = load ptr, ptr %11, align 8
  %35 = load i8, ptr %16, align 1, !range !8, !noundef !9
  %36 = trunc i8 %35 to i1
  %37 = load i32, ptr %15, align 4
  %38 = load i32, ptr @hf_giop_repoid, align 4
  call void @dissect_typecode_string_param(ptr noundef %32, ptr noundef %33, ptr noundef %34, i1 noundef zeroext %36, i32 noundef %37, i32 noundef %38, ptr noundef %19)
  %39 = load ptr, ptr %14, align 8
  %40 = load ptr, ptr %19, align 8
  call void @wmem_list_append(ptr noundef %39, ptr noundef %40)
  %41 = load ptr, ptr %8, align 8
  %42 = load ptr, ptr %10, align 8
  %43 = load ptr, ptr %11, align 8
  %44 = load i8, ptr %16, align 1, !range !8, !noundef !9
  %45 = trunc i8 %44 to i1
  %46 = load i32, ptr %15, align 4
  %47 = load i32, ptr @hf_giop_typecode_name, align 4
  call void @dissect_typecode_string_param(ptr noundef %41, ptr noundef %42, ptr noundef %43, i1 noundef zeroext %45, i32 noundef %46, i32 noundef %47, ptr noundef %19)
  %48 = load ptr, ptr %14, align 8
  %49 = load ptr, ptr %19, align 8
  call void @wmem_list_append(ptr noundef %48, ptr noundef %49)
  %50 = load ptr, ptr %8, align 8
  %51 = load ptr, ptr %11, align 8
  %52 = load i8, ptr %16, align 1, !range !8, !noundef !9
  %53 = trunc i8 %52 to i1
  %54 = load i32, ptr %15, align 4
  %55 = call i32 @get_CDR_ulong(ptr noundef %50, ptr noundef %51, i1 noundef zeroext %53, i32 noundef %54)
  %56 = load ptr, ptr %17, align 8
  store i32 %55, ptr %56, align 4
  %57 = load ptr, ptr %10, align 8
  %58 = load i32, ptr @hf_giop_typecode_count, align 4
  %59 = load ptr, ptr %8, align 8
  %60 = load ptr, ptr %11, align 8
  %61 = load i32, ptr %60, align 4
  %62 = sub i32 %61, 4
  %63 = load ptr, ptr %17, align 8
  %64 = load i32, ptr %63, align 4
  %65 = call ptr @proto_tree_add_uint(ptr noundef %57, i32 noundef %58, ptr noundef %59, i32 noundef %62, i32 noundef 4, i32 noundef %64)
  %66 = load ptr, ptr %14, align 8
  %67 = load ptr, ptr %17, align 8
  call void @wmem_list_append(ptr noundef %66, ptr noundef %67)
  store i32 0, ptr %18, align 4
  br label %68

68:                                               ; preds = %83, %7
  %69 = load i32, ptr %18, align 4
  %70 = load ptr, ptr %17, align 8
  %71 = load i32, ptr %70, align 4
  %72 = icmp ult i32 %69, %71
  br i1 %72, label %73, label %86

73:                                               ; preds = %68
  %74 = load ptr, ptr %8, align 8
  %75 = load ptr, ptr %10, align 8
  %76 = load ptr, ptr %11, align 8
  %77 = load i8, ptr %16, align 1, !range !8, !noundef !9
  %78 = trunc i8 %77 to i1
  %79 = load i32, ptr %15, align 4
  %80 = load i32, ptr @hf_giop_typecode_member_name, align 4
  call void @dissect_typecode_string_param(ptr noundef %74, ptr noundef %75, ptr noundef %76, i1 noundef zeroext %78, i32 noundef %79, i32 noundef %80, ptr noundef %19)
  %81 = load ptr, ptr %14, align 8
  %82 = load ptr, ptr %19, align 8
  call void @wmem_list_append(ptr noundef %81, ptr noundef %82)
  br label %83

83:                                               ; preds = %73
  %84 = load i32, ptr %18, align 4
  %85 = add i32 %84, 1
  store i32 %85, ptr %18, align 4
  br label %68, !llvm.loop !30

86:                                               ; preds = %68
  call void @llvm.lifetime.end.p0(i64 8, ptr %19) #14
  call void @llvm.lifetime.end.p0(i64 4, ptr %18) #14
  call void @llvm.lifetime.end.p0(i64 8, ptr %17) #14
  call void @llvm.lifetime.end.p0(i64 1, ptr %16) #14
  call void @llvm.lifetime.end.p0(i64 4, ptr %15) #14
  ret void
}