; Function Attrs: null_pointer_is_valid sspstrong uwtable
define internal fastcc void @dissect_tk_enum_params(ptr noundef %0, ptr %.408.val, ptr noundef %1, ptr noundef captures(none) %2, i1 noundef zeroext %3, i32 noundef %4, ptr noundef %5) unnamed_addr #0 {
  %7 = alloca i32, align 4
  %8 = alloca i8, align 1
  %9 = alloca ptr, align 8
  call void @llvm.lifetime.start.p0(i64 4, ptr nonnull %7) #17
  call void @llvm.lifetime.start.p0(i64 1, ptr nonnull %8) #17
  %10 = tail call noalias dereferenceable_or_null(4) ptr @wmem_alloc0(ptr noundef %.408.val, i64 noundef 4) #18
  %11 = call i32 @get_CDR_encap_info(ptr noundef %0, ptr noundef %1, ptr noundef %2, i1 noundef zeroext %3, i32 noundef %4, ptr noundef nonnull %8, ptr noundef nonnull %7)
  call void @llvm.lifetime.start.p0(i64 8, ptr nonnull %9) #17
  %12 = load i8, ptr %8, align 1, !range !29, !noundef !30
  %13 = trunc nuw i8 %12 to i1
  %14 = load i32, ptr %7, align 4
  %15 = load i32, ptr @hf_giop_repoid, align 4
  call fastcc void @dissect_typecode_string_param(ptr noundef %0, ptr noundef %1, ptr noundef %2, i1 noundef zeroext %13, i32 noundef %14, i32 noundef %15, ptr noundef nonnull %9)
  %16 = load ptr, ptr %9, align 8
  tail call void @wmem_list_append(ptr noundef %5, ptr noundef %16)
  %17 = load i32, ptr @hf_giop_typecode_name, align 4
  call fastcc void @dissect_typecode_string_param(ptr noundef %0, ptr noundef %1, ptr noundef %2, i1 noundef zeroext %13, i32 noundef %14, i32 noundef %17, ptr noundef nonnull %9)
  %18 = load ptr, ptr %9, align 8
  tail call void @wmem_list_append(ptr noundef %5, ptr noundef %18)
  %.promoted.i = load i32, ptr %2, align 4
  %19 = add i32 %.promoted.i, %14
  %20 = and i32 %19, 3
  %.not9.i = icmp eq i32 %20, 0
  br i1 %.not9.i, label %22, label %.lr.ph.preheader.i

.lr.ph.preheader.i:                               ; preds = %6
  %21 = or i32 %19, -4
  %sub = sub i32 %.promoted.i, %21
  store i32 %sub, ptr %2, align 4
  br label %22

22:                                               ; preds = %.lr.ph.preheader.i, %6
  %.lcssa.i = phi i32 [ %sub, %.lr.ph.preheader.i ], [ %.promoted.i, %6 ]
  br i1 %13, label %23, label %25

23:                                               ; preds = %22
  %24 = tail call i32 @tvb_get_ntohl(ptr noundef %0, i32 noundef %.lcssa.i)
  br label %get_CDR_ulong.exit

25:                                               ; preds = %22
  %26 = tail call i32 @tvb_get_letohl(ptr noundef %0, i32 noundef %.lcssa.i)
  br label %get_CDR_ulong.exit

get_CDR_ulong.exit:                               ; preds = %23, %25
  %27 = phi i32 [ %24, %23 ], [ %26, %25 ]
  %28 = load i32, ptr %2, align 4
  %29 = add i32 %28, 4
  store i32 %29, ptr %2, align 4
  store i32 %27, ptr %10, align 4
  %30 = load i32, ptr @hf_giop_typecode_count, align 4
  %31 = tail call ptr @proto_tree_add_uint(ptr noundef %1, i32 noundef %30, ptr noundef %0, i32 noundef %28, i32 noundef 4, i32 noundef %27)
  tail call void @wmem_list_append(ptr noundef %5, ptr noundef %10)
  %32 = load i32, ptr %10, align 4
  %.not = icmp eq i32 %32, 0
  br i1 %.not, label %._crit_edge, label %.lr.ph

.lr.ph:                                           ; preds = %get_CDR_ulong.exit, %.lr.ph
  %.01 = phi i32 [ %35, %.lr.ph ], [ 0, %get_CDR_ulong.exit ]
  %33 = load i32, ptr @hf_giop_typecode_member_name, align 4
  call fastcc void @dissect_typecode_string_param(ptr noundef %0, ptr noundef %1, ptr noundef %2, i1 noundef zeroext %13, i32 noundef %14, i32 noundef %33, ptr noundef nonnull %9)
  %34 = load ptr, ptr %9, align 8
  tail call void @wmem_list_append(ptr noundef %5, ptr noundef %34)
  %35 = add nuw i32 %.01, 1
  %36 = load i32, ptr %10, align 4
  %37 = icmp ult i32 %35, %36
  br i1 %37, label %.lr.ph, label %._crit_edge, !llvm.loop !36

._crit_edge:                                      ; preds = %.lr.ph, %get_CDR_ulong.exit
  call void @llvm.lifetime.end.p0(i64 8, ptr nonnull %9) #17
  call void @llvm.lifetime.end.p0(i64 1, ptr nonnull %8) #17
  call void @llvm.lifetime.end.p0(i64 4, ptr nonnull %7) #17
  ret void
}